; ModuleID = '60/593.c'
source_filename = "60/593.c"
target datalayout = "e-m:e-p270:32:32-p271:32:32-p272:64:64-i64:64-f80:128-n8:16:32:64-S128"
target triple = "x86_64-pc-linux-gnu"

@.str = private unnamed_addr constant [3 x i8] c"%d\00", align 1
@.str.1 = private unnamed_addr constant [7 x i8] c"empty\0A\00", align 1
@.str.2 = private unnamed_addr constant [7 x i8] c"%d %d\0A\00", align 1

; Function Attrs: noinline nounwind uwtable
define dso_local i32 @main() #0 {
  %1 = alloca i32, align 4
  %2 = alloca i32, align 4
  %3 = alloca i32, align 4
  %4 = alloca i32, align 4
  store i32 0, i32* %1, align 4
  %5 = call i32 (i8*, ...) @__isoc99_scanf(i8* getelementptr inbounds ([3 x i8], [3 x i8]* @.str, i64 0, i64 0), i32* %2)
  store i32 3, i32* %3, align 4
  store i32 5, i32* %4, align 4
  %6 = load i32, i32* %2, align 4
  %7 = icmp slt i32 %6, 5
  br i1 %7, label %8, label %10

8:                                                ; preds = %0
  %9 = call i32 (i8*, ...) @printf(i8* getelementptr inbounds ([7 x i8], [7 x i8]* @.str.1, i64 0, i64 0))
  br label %33

10:                                               ; preds = %0
  br label %11

11:                                               ; preds = %28, %10
  %12 = load i32, i32* %3, align 4
  %13 = call i32 @su(i32 %12)
  %14 = icmp ne i32 %13, 0
  br i1 %14, label %15, label %23

15:                                               ; preds = %11
  %16 = load i32, i32* %4, align 4
  %17 = call i32 @su(i32 %16)
  %18 = icmp ne i32 %17, 0
  br i1 %18, label %19, label %23

19:                                               ; preds = %15
  %20 = load i32, i32* %3, align 4
  %21 = load i32, i32* %4, align 4
  %22 = call i32 (i8*, ...) @printf(i8* getelementptr inbounds ([7 x i8], [7 x i8]* @.str.2, i64 0, i64 0), i32 %20, i32 %21)
  br label %23

23:                                               ; preds = %19, %15, %11
  %24 = load i32, i32* %3, align 4
  %25 = add nsw i32 %24, 2
  store i32 %25, i32* %3, align 4
  %26 = load i32, i32* %4, align 4
  %27 = add nsw i32 %26, 2
  store i32 %27, i32* %4, align 4
  br label %28

28:                                               ; preds = %23
  %29 = load i32, i32* %4, align 4
  %30 = load i32, i32* %2, align 4
  %31 = icmp sle i32 %29, %30
  br i1 %31, label %11, label %32

32:                                               ; preds = %28
  br label %33

33:                                               ; preds = %32, %8
  %34 = load i32, i32* %1, align 4
  ret i32 %34
}

declare dso_local i32 @__isoc99_scanf(i8*, ...) #1

declare dso_local i32 @printf(i8*, ...) #1

; Function Attrs: noinline nounwind uwtable
define dso_local i32 @su(i32 %0) #0 {
  %2 = alloca i32, align 4
  %3 = alloca i32, align 4
  %4 = alloca i32, align 4
  store i32 %0, i32* %2, align 4
  store i32 1, i32* %4, align 4
  store i32 2, i32* %3, align 4
  br label %5

5:                                                ; preds = %17, %1
  %6 = load i32, i32* %3, align 4
  %7 = load i32, i32* %2, align 4
  %8 = sdiv i32 %7, 2
  %9 = icmp slt i32 %6, %8
  br i1 %9, label %10, label %20

10:                                               ; preds = %5
  %11 = load i32, i32* %2, align 4
  %12 = load i32, i32* %3, align 4
  %13 = srem i32 %11, %12
  %14 = icmp eq i32 %13, 0
  br i1 %14, label %15, label %16

15:                                               ; preds = %10
  store i32 0, i32* %4, align 4
  br label %20

16:                                               ; preds = %10
  br label %17

17:                                               ; preds = %16
  %18 = load i32, i32* %3, align 4
  %19 = add nsw i32 %18, 1
  store i32 %19, i32* %3, align 4
  br label %5

20:                                               ; preds = %15, %5
  %21 = load i32, i32* %4, align 4
  ret i32 %21
}


!llvm.module.flags = !{!0}
!llvm.ident = !{!1}

!0 = !{i32 1, !"wchar_size", i32 4}
!1 = !{!"clang version 10.0.0-4ubuntu1 "}
