; ModuleID = 'source-C-CXX/59/593.c'
source_filename = "source-C-CXX/59/593.c"
target datalayout = "e-m:e-p270:32:32-p271:32:32-p272:64:64-i64:64-f80:128-n8:16:32:64-S128"
target triple = "x86_64-pc-linux-gnu"

@.str = private unnamed_addr constant [3 x i8] c"%d\00", align 1
@.str.2 = private unnamed_addr constant [7 x i8] c"%d %d\0A\00", align 1
@str = private unnamed_addr constant [6 x i8] c"empty\00", align 1

; Function Attrs: nofree nounwind sspstrong uwtable
define dso_local i32 @main() local_unnamed_addr #0 {
  %1 = alloca i32, align 4
  %2 = bitcast i32* %1 to i8*
  call void @llvm.lifetime.start.p0i8(i64 4, i8* nonnull %2) #5
  %3 = call i32 (i8*, ...) @__isoc99_scanf(i8* getelementptr inbounds ([3 x i8], [3 x i8]* @.str, i64 0, i64 0), i32* nonnull %1)
  %4 = load i32, i32* %1, align 4, !tbaa !5
  %5 = icmp slt i32 %4, 5
  br i1 %5, label %6, label %8

6:                                                ; preds = %0
  %7 = call i32 @puts(i8* nonnull dereferenceable(1) getelementptr inbounds ([6 x i8], [6 x i8]* @str, i64 0, i64 0))
  br label %41

8:                                                ; preds = %0, %36
  %9 = phi i32 [ %37, %36 ], [ %4, %0 ]
  %10 = phi i32 [ %38, %36 ], [ 3, %0 ]
  %11 = phi i32 [ %39, %36 ], [ 5, %0 ]
  %12 = icmp ugt i32 %10, 5
  br i1 %12, label %13, label %22

13:                                               ; preds = %8
  %14 = lshr i32 %10, 1
  br label %17

15:                                               ; preds = %17
  %16 = icmp eq i32 %21, %14
  br i1 %16, label %22, label %17, !llvm.loop !9

17:                                               ; preds = %15, %13
  %18 = phi i32 [ %21, %15 ], [ 2, %13 ]
  %19 = urem i32 %10, %18
  %20 = icmp eq i32 %19, 0
  %21 = add nuw nsw i32 %18, 1
  br i1 %20, label %36, label %15

22:                                               ; preds = %15, %8
  %23 = icmp ugt i32 %11, 5
  br i1 %23, label %24, label %33

24:                                               ; preds = %22
  %25 = lshr i32 %11, 1
  br label %28

26:                                               ; preds = %28
  %27 = icmp eq i32 %32, %25
  br i1 %27, label %33, label %28, !llvm.loop !9

28:                                               ; preds = %26, %24
  %29 = phi i32 [ %32, %26 ], [ 2, %24 ]
  %30 = urem i32 %11, %29
  %31 = icmp eq i32 %30, 0
  %32 = add nuw nsw i32 %29, 1
  br i1 %31, label %36, label %26

33:                                               ; preds = %26, %22
  %34 = call i32 (i8*, ...) @printf(i8* nonnull dereferenceable(1) getelementptr inbounds ([7 x i8], [7 x i8]* @.str.2, i64 0, i64 0), i32 %10, i32 %11)
  %35 = load i32, i32* %1, align 4, !tbaa !5
  br label %36

36:                                               ; preds = %17, %28, %33
  %37 = phi i32 [ %35, %33 ], [ %9, %28 ], [ %9, %17 ]
  %38 = add nuw nsw i32 %10, 2
  %39 = add nuw nsw i32 %11, 2
  %40 = icmp sgt i32 %39, %37
  br i1 %40, label %41, label %8, !llvm.loop !11

41:                                               ; preds = %36, %6
  call void @llvm.lifetime.end.p0i8(i64 4, i8* nonnull %2) #5
  ret i32 0
}

; Function Attrs: argmemonly mustprogress nofree nosync nounwind willreturn
declare void @llvm.lifetime.start.p0i8(i64 immarg, i8* nocapture) #1

; Function Attrs: nofree nounwind
declare noundef i32 @__isoc99_scanf(i8* nocapture noundef readonly, ...) local_unnamed_addr #2

; Function Attrs: nofree nounwind
declare noundef i32 @printf(i8* nocapture noundef readonly, ...) local_unnamed_addr #2

; Function Attrs: nofree norecurse nosync nounwind readnone sspstrong uwtable
define dso_local i32 @su(i32 %0) local_unnamed_addr #3 {
  %2 = icmp sgt i32 %0, 5
  br i1 %2, label %3, label %12

3:                                                ; preds = %1
  %4 = lshr i32 %0, 1
  br label %7

5:                                                ; preds = %7
  %6 = icmp eq i32 %11, %4
  br i1 %6, label %12, label %7, !llvm.loop !9

7:                                                ; preds = %3, %5
  %8 = phi i32 [ %11, %5 ], [ 2, %3 ]
  %9 = srem i32 %0, %8
  %10 = icmp eq i32 %9, 0
  %11 = add nuw nsw i32 %8, 1
  br i1 %10, label %12, label %5

12:                                               ; preds = %5, %7, %1
  %13 = phi i32 [ 1, %1 ], [ 0, %7 ], [ 1, %5 ]
  ret i32 %13
}

; Function Attrs: argmemonly mustprogress nofree nosync nounwind willreturn
declare void @llvm.lifetime.end.p0i8(i64 immarg, i8* nocapture) #1

; Function Attrs: nofree nounwind
declare noundef i32 @puts(i8* nocapture noundef readonly) local_unnamed_addr #4


!llvm.module.flags = !{!0, !1, !2, !3}
!llvm.ident = !{!4}

!0 = !{i32 1, !"wchar_size", i32 4}
!1 = !{i32 7, !"PIC Level", i32 2}
!2 = !{i32 7, !"PIE Level", i32 2}
!3 = !{i32 7, !"uwtable", i32 1}
!4 = !{!"clang version 13.0.0"}
!5 = !{!6, !6, i64 0}
!6 = !{!"int", !7, i64 0}
!7 = !{!"omnipotent char", !8, i64 0}
!8 = !{!"Simple C/C++ TBAA"}
!9 = distinct !{!9, !10}
!10 = !{!"llvm.loop.mustprogress"}
!11 = distinct !{!11, !10}
